; Function Attrs: nounwind uwtable
define noundef ptr @Fra_CollectSuper(ptr noundef %0, i32 noundef %1) local_unnamed_addr #0 {
  %3 = tail call noalias dereferenceable_or_null(16) ptr @malloc(i64 noundef 16) #8
  %4 = getelementptr inbounds nuw i8, ptr %3, i64 4
  store i32 0, ptr %4, align 4, !tbaa !28
  store i32 8, ptr %3, align 8, !tbaa !38
  %5 = tail call noalias dereferenceable_or_null(64) ptr @malloc(i64 noundef 64) #8
  %6 = getelementptr inbounds nuw i8, ptr %3, i64 8
  store ptr %5, ptr %6, align 8, !tbaa !30
  tail call void @Fra_CollectSuper_rec(ptr noundef %0, ptr noundef nonnull %3, i32 noundef 1, i32 noundef %1)
  ret ptr %3
}